; Function Attrs: nounwind uwtable
define ptr @l_Lean_Elab_Command_addLinter(ptr noundef %0, ptr noundef %1) local_unnamed_addr #0 {
  %3 = load ptr, ptr @l_Lean_Elab_Command_addLinter___closed__1, align 8, !tbaa !9
  %4 = tail call ptr @lean_st_ref_get(ptr noundef %3, ptr noundef %1) #6
  %5 = getelementptr inbounds nuw i8, ptr %4, i64 8
  %6 = load ptr, ptr %5, align 8, !tbaa !9
  %7 = ptrtoint ptr %6 to i64
  %8 = and i64 %7, 1
  %.not = icmp eq i64 %8, 0
  br i1 %.not, label %9, label %lean_inc.exit27

9:                                                ; preds = %2
  %.val.i = load i32, ptr %6, align 4, !tbaa !4
  %10 = icmp sgt i32 %.val.i, 0
  br i1 %10, label %11, label %13, !prof !13

11:                                               ; preds = %9
  %12 = add nuw i32 %.val.i, 1
  store i32 %12, ptr %6, align 4, !tbaa !4
  br label %lean_inc.exit27

13:                                               ; preds = %9
  %.not.i31 = icmp eq i32 %.val.i, 0
  br i1 %.not.i31, label %lean_inc.exit27, label %14

14:                                               ; preds = %13
  tail call void @lean_inc_ref_cold(ptr noundef nonnull %6) #6
  br label %lean_inc.exit27

lean_inc.exit27:                                  ; preds = %14, %13, %11, %2
  %15 = getelementptr inbounds nuw i8, ptr %4, i64 16
  %16 = load ptr, ptr %15, align 8, !tbaa !9
  %17 = ptrtoint ptr %16 to i64
  %18 = and i64 %17, 1
  %.not41 = icmp eq i64 %18, 0
  br i1 %.not41, label %19, label %lean_inc.exit26

19:                                               ; preds = %lean_inc.exit27
  %.val.i32 = load i32, ptr %16, align 4, !tbaa !4
  %20 = icmp sgt i32 %.val.i32, 0
  br i1 %20, label %21, label %23, !prof !13

21:                                               ; preds = %19
  %22 = add nuw i32 %.val.i32, 1
  store i32 %22, ptr %16, align 4, !tbaa !4
  br label %lean_inc.exit26

23:                                               ; preds = %19
  %.not.i33 = icmp eq i32 %.val.i32, 0
  br i1 %.not.i33, label %lean_inc.exit26, label %24

24:                                               ; preds = %23
  tail call void @lean_inc_ref_cold(ptr noundef nonnull %16) #6
  br label %lean_inc.exit26

lean_inc.exit26:                                  ; preds = %24, %23, %21, %lean_inc.exit27
  %25 = ptrtoint ptr %4 to i64
  %26 = and i64 %25, 1
  %.not42 = icmp eq i64 %26, 0
  br i1 %.not42, label %27, label %lean_dec.exit28

27:                                               ; preds = %lean_inc.exit26
  %28 = load i32, ptr %4, align 4, !tbaa !4
  %29 = icmp sgt i32 %28, 1
  br i1 %29, label %30, label %32, !prof !13

30:                                               ; preds = %27
  %31 = add nsw i32 %28, -1
  store i32 %31, ptr %4, align 4, !tbaa !4
  br label %lean_dec.exit28

32:                                               ; preds = %27
  %.not.i = icmp eq i32 %28, 0
  br i1 %.not.i, label %lean_dec.exit28, label %33

33:                                               ; preds = %32
  tail call void @lean_dec_ref_cold(ptr noundef nonnull %4) #6
  br label %lean_dec.exit28

lean_dec.exit28:                                  ; preds = %33, %32, %30, %lean_inc.exit26
  %34 = tail call ptr @lean_array_push(ptr noundef %6, ptr noundef %0) #6
  %35 = tail call ptr @lean_st_ref_set(ptr noundef %3, ptr noundef %34, ptr noundef %16) #6
  %.val = load i32, ptr %35, align 4, !tbaa !4
  %36 = icmp eq i32 %.val, 1
  br i1 %36, label %73, label %37

37:                                               ; preds = %lean_dec.exit28
  %38 = getelementptr inbounds nuw i8, ptr %35, i64 8
  %39 = load ptr, ptr %38, align 8, !tbaa !9
  %40 = getelementptr inbounds nuw i8, ptr %35, i64 16
  %41 = load ptr, ptr %40, align 8, !tbaa !9
  %42 = ptrtoint ptr %41 to i64
  %43 = and i64 %42, 1
  %.not43 = icmp eq i64 %43, 0
  br i1 %.not43, label %44, label %lean_inc.exit25

44:                                               ; preds = %37
  %.val.i35 = load i32, ptr %41, align 4, !tbaa !4
  %45 = icmp sgt i32 %.val.i35, 0
  br i1 %45, label %46, label %48, !prof !13

46:                                               ; preds = %44
  %47 = add nuw i32 %.val.i35, 1
  store i32 %47, ptr %41, align 4, !tbaa !4
  br label %lean_inc.exit25

48:                                               ; preds = %44
  %.not.i36 = icmp eq i32 %.val.i35, 0
  br i1 %.not.i36, label %lean_inc.exit25, label %49

49:                                               ; preds = %48
  tail call void @lean_inc_ref_cold(ptr noundef nonnull %41) #6
  br label %lean_inc.exit25

lean_inc.exit25:                                  ; preds = %49, %48, %46, %37
  %50 = ptrtoint ptr %39 to i64
  %51 = and i64 %50, 1
  %.not44 = icmp eq i64 %51, 0
  br i1 %.not44, label %52, label %lean_inc.exit

52:                                               ; preds = %lean_inc.exit25
  %.val.i38 = load i32, ptr %39, align 4, !tbaa !4
  %53 = icmp sgt i32 %.val.i38, 0
  br i1 %53, label %54, label %56, !prof !13

54:                                               ; preds = %52
  %55 = add nuw i32 %.val.i38, 1
  store i32 %55, ptr %39, align 4, !tbaa !4
  br label %lean_inc.exit

56:                                               ; preds = %52
  %.not.i39 = icmp eq i32 %.val.i38, 0
  br i1 %.not.i39, label %lean_inc.exit, label %57

57:                                               ; preds = %56
  tail call void @lean_inc_ref_cold(ptr noundef nonnull %39) #6
  br label %lean_inc.exit

lean_inc.exit:                                    ; preds = %57, %56, %54, %lean_inc.exit25
  %58 = ptrtoint ptr %35 to i64
  %59 = and i64 %58, 1
  %.not45 = icmp eq i64 %59, 0
  br i1 %.not45, label %60, label %lean_dec.exit

60:                                               ; preds = %lean_inc.exit
  %61 = load i32, ptr %35, align 4, !tbaa !4
  %62 = icmp sgt i32 %61, 1
  br i1 %62, label %63, label %65, !prof !13

63:                                               ; preds = %60
  %64 = add nsw i32 %61, -1
  store i32 %64, ptr %35, align 4, !tbaa !4
  br label %lean_dec.exit

65:                                               ; preds = %60
  %.not.i29 = icmp eq i32 %61, 0
  br i1 %.not.i29, label %lean_dec.exit, label %66

66:                                               ; preds = %65
  tail call void @lean_dec_ref_cold(ptr noundef nonnull %35) #6
  br label %lean_dec.exit

lean_dec.exit:                                    ; preds = %66, %65, %63, %lean_inc.exit
  tail call void @lean_inc_heartbeat() #6
  %67 = tail call noalias ptr @mi_malloc_small(i64 noundef 24) #6
  %68 = icmp eq ptr %67, null
  br i1 %68, label %69, label %lean_alloc_ctor.exit

69:                                               ; preds = %lean_dec.exit
  tail call void @lean_internal_panic_out_of_memory() #7
  unreachable

lean_alloc_ctor.exit:                             ; preds = %lean_dec.exit
  %70 = getelementptr inbounds nuw i8, ptr %67, i64 4
  store i32 1, ptr %67, align 4, !tbaa !4
  store i32 131096, ptr %70, align 4
  %71 = getelementptr inbounds nuw i8, ptr %67, i64 8
  store ptr %39, ptr %71, align 8, !tbaa !9
  %72 = getelementptr inbounds nuw i8, ptr %67, i64 16
  store ptr %41, ptr %72, align 8, !tbaa !9
  br label %73

73:                                               ; preds = %lean_dec.exit28, %lean_alloc_ctor.exit
  %.0 = phi ptr [ %67, %lean_alloc_ctor.exit ], [ %35, %lean_dec.exit28 ]
  ret ptr %.0
}